SF:/home/wlritchi/niri-spacer/src/error.rs
FN:139,_RNvNtNtCsedyNFsHywaG_11niri_spacer5error5testss_22test_result_type_alias
FN:148,_RNvNtNtCsedyNFsHywaG_11niri_spacer5error5testss_23test_error_debug_format
FN:116,_RNvNtNtCsedyNFsHywaG_11niri_spacer5error5testss_24test_error_from_io_error
FN:128,_RNvNtNtCsedyNFsHywaG_11niri_spacer5error5testss_26test_error_from_json_error
FN:66,_RNvNtNtCsedyNFsHywaG_11niri_spacer5error5testss_27test_error_display_messages
FNDA:1,_RNvNtNtCsedyNFsHywaG_11niri_spacer5error5testss_22test_result_type_alias
FNDA:1,_RNvNtNtCsedyNFsHywaG_11niri_spacer5error5testss_23test_error_debug_format
FNDA:1,_RNvNtNtCsedyNFsHywaG_11niri_spacer5error5testss_24test_error_from_io_error
FNDA:1,_RNvNtNtCsedyNFsHywaG_11niri_spacer5error5testss_26test_error_from_json_error
FNDA:1,_RNvNtNtCsedyNFsHywaG_11niri_spacer5error5testss_27test_error_display_messages
FNF:5
FNH:5
DA:66,1
DA:67,1
DA:68,1
DA:69,1
DA:70,1
DA:71,1
DA:72,1
DA:73,1
DA:74,1
DA:75,1
DA:76,1
DA:77,1
DA:78,1
DA:79,1
DA:80,1
DA:81,1
DA:82,1
DA:83,1
DA:84,1
DA:85,1
DA:86,1
DA:87,1
DA:88,1
DA:89,1
DA:90,1
DA:91,1
DA:92,1
DA:93,1
DA:94,1
DA:95,1
DA:96,1
DA:97,1
DA:98,1
DA:99,1
DA:100,1
DA:101,1
DA:102,1
DA:103,1
DA:104,1
DA:105,1
DA:106,1
DA:107,1
DA:110,11
DA:111,10
DA:113,1
DA:116,1
DA:117,1
DA:118,1
DA:119,1
DA:121,1
DA:122,1
DA:123,0
DA:125,1
DA:128,1
DA:129,1
DA:130,1
DA:132,1
DA:133,1
DA:134,0
DA:136,1
DA:139,1
DA:140,1
DA:141,1
DA:143,1
DA:144,1
DA:145,1
DA:148,1
DA:149,1
DA:150,1
DA:151,1
DA:152,1
DA:153,1
BRF:0
BRH:0
LF:72
LH:70
end_of_record
SF:/home/wlritchi/niri-spacer/src/lib.rs
FN:52,_RNCNvMCs6obUjV1pBb_11niri_spacerNtB4_10NiriSpacer3new0CslsGjTMV4L15_17integration_tests
FN:114,_RNvMCs6obUjV1pBb_11niri_spacerNtB2_10NiriSpacer12session_info
FN:52,_RNvMCs6obUjV1pBb_11niri_spacerNtB2_10NiriSpacer3new
FN:68,_RNvMCs6obUjV1pBb_11niri_spacerNtB2_10NiriSpacer3run
FN:119,_RNvMCs6obUjV1pBb_11niri_spacerNtB2_10NiriSpacer9get_stats
FN:52,_RNCNvMCs6obUjV1pBb_11niri_spacerNtB4_10NiriSpacer3new0B4_
FN:68,_RNCNvMCs6obUjV1pBb_11niri_spacerNtB4_10NiriSpacer3run0B4_
FN:119,_RNCNvMCs6obUjV1pBb_11niri_spacerNtB4_10NiriSpacer9get_stats0B4_
FN:52,_RNCNvMCs6obUjV1pBb_11niri_spacerNtB4_10NiriSpacer3new0CsjHH7bH7LryK_11niri_spacer
FN:68,_RNCNvMCs6obUjV1pBb_11niri_spacerNtB4_10NiriSpacer3run0CsjHH7bH7LryK_11niri_spacer
FN:119,_RNCNvMCs6obUjV1pBb_11niri_spacerNtB4_10NiriSpacer9get_stats0CsjHH7bH7LryK_11niri_spacer
FN:52,_RNCNvMCsedyNFsHywaG_11niri_spacerNtB4_10NiriSpacer3new0B4_
FN:68,_RNCNvMCsedyNFsHywaG_11niri_spacerNtB4_10NiriSpacer3run0B4_
FN:119,_RNCNvMCsedyNFsHywaG_11niri_spacerNtB4_10NiriSpacer9get_stats0B4_
FN:114,_RNvMCsedyNFsHywaG_11niri_spacerNtB2_10NiriSpacer12session_info
FN:52,_RNvMCsedyNFsHywaG_11niri_spacerNtB2_10NiriSpacer3new
FN:68,_RNvMCsedyNFsHywaG_11niri_spacerNtB2_10NiriSpacer3run
FN:119,_RNvMCsedyNFsHywaG_11niri_spacerNtB2_10NiriSpacer9get_stats
FN:129,_RNvNtCsedyNFsHywaG_11niri_spacer5testss_14test_constants
FN:155,_RNvNtCsedyNFsHywaG_11niri_spacer5testss_17test_app_metadata
FN:142,_RNvNtCsedyNFsHywaG_11niri_spacer5testss_28test_window_count_validation
FN:168,_RNvNtCsedyNFsHywaG_11niri_spacer5testss_35test_delay_constants_are_reasonable
FNDA:2,_RNCNvMCs6obUjV1pBb_11niri_spacerNtB4_10NiriSpacer3new0CslsGjTMV4L15_17integration_tests
FNDA:0,_RNvMCs6obUjV1pBb_11niri_spacerNtB2_10NiriSpacer12session_info
FNDA:2,_RNvMCs6obUjV1pBb_11niri_spacerNtB2_10NiriSpacer3new
FNDA:0,_RNvMCs6obUjV1pBb_11niri_spacerNtB2_10NiriSpacer3run
FNDA:0,_RNvMCs6obUjV1pBb_11niri_spacerNtB2_10NiriSpacer9get_stats
FNDA:0,_RNCNvMCs6obUjV1pBb_11niri_spacerNtB4_10NiriSpacer3new0B4_
FNDA:0,_RNCNvMCs6obUjV1pBb_11niri_spacerNtB4_10NiriSpacer3run0B4_
FNDA:0,_RNCNvMCs6obUjV1pBb_11niri_spacerNtB4_10NiriSpacer9get_stats0B4_
FNDA:0,_RNCNvMCs6obUjV1pBb_11niri_spacerNtB4_10NiriSpacer3new0CsjHH7bH7LryK_11niri_spacer
FNDA:0,_RNCNvMCs6obUjV1pBb_11niri_spacerNtB4_10NiriSpacer3run0CsjHH7bH7LryK_11niri_spacer
FNDA:0,_RNCNvMCs6obUjV1pBb_11niri_spacerNtB4_10NiriSpacer9get_stats0CsjHH7bH7LryK_11niri_spacer
FNDA:0,_RNCNvMCsedyNFsHywaG_11niri_spacerNtB4_10NiriSpacer3new0B4_
FNDA:0,_RNCNvMCsedyNFsHywaG_11niri_spacerNtB4_10NiriSpacer3run0B4_
FNDA:0,_RNCNvMCsedyNFsHywaG_11niri_spacerNtB4_10NiriSpacer9get_stats0B4_
FNDA:0,_RNvMCsedyNFsHywaG_11niri_spacerNtB2_10NiriSpacer12session_info
FNDA:0,_RNvMCsedyNFsHywaG_11niri_spacerNtB2_10NiriSpacer3new
FNDA:0,_RNvMCsedyNFsHywaG_11niri_spacerNtB2_10NiriSpacer3run
FNDA:0,_RNvMCsedyNFsHywaG_11niri_spacerNtB2_10NiriSpacer9get_stats
FNDA:1,_RNvNtCsedyNFsHywaG_11niri_spacer5testss_14test_constants
FNDA:1,_RNvNtCsedyNFsHywaG_11niri_spacer5testss_17test_app_metadata
FNDA:1,_RNvNtCsedyNFsHywaG_11niri_spacer5testss_28test_window_count_validation
FNDA:1,_RNvNtCsedyNFsHywaG_11niri_spacer5testss_35test_delay_constants_are_reasonable
FNF:11
FNH:6
DA:52,2
DA:54,2
DA:57,0
DA:58,0
DA:60,0
DA:61,0
DA:62,0
DA:63,0
DA:64,0
DA:65,2
DA:68,0
DA:70,0
DA:71,0
DA:72,0
DA:75,0
DA:78,0
DA:79,0
DA:80,0
DA:81,0
DA:84,0
DA:85,0
DA:86,0
DA:89,0
DA:90,0
DA:91,0
DA:92,0
DA:95,0
DA:98,0
DA:101,0
DA:102,0
DA:103,0
DA:105,0
DA:107,0
DA:108,0
DA:110,0
DA:111,0
DA:114,0
DA:115,0
DA:116,0
DA:119,0
DA:120,0
DA:121,0
DA:129,1
DA:130,1
DA:131,1
DA:132,1
DA:134,1
DA:135,1
DA:136,1
DA:137,1
DA:138,1
DA:139,1
DA:142,1
DA:144,1
DA:145,1
DA:146,1
DA:149,1
DA:150,1
DA:151,1
DA:152,1
DA:155,1
DA:157,1
DA:158,1
DA:161,1
DA:163,1
DA:164,1
DA:168,1
DA:170,1
DA:171,1
DA:173,1
DA:174,1
DA:177,1
DA:178,1
BRF:0
BRH:0
LF:76
LH:35
end_of_record
SF:/home/wlritchi/niri-spacer/src/main.rs
FN:243,_RNCNCNvCsjHH7bH7LryK_11niri_spacer12handle_stats0s_0B5_
FN:230,_RNCNvCsjHH7bH7LryK_11niri_spacer12handle_stats0B3_
FN:192,_RNCNvCsjHH7bH7LryK_11niri_spacer19handle_session_info0B3_
FN:50,_RNCNvCsjHH7bH7LryK_11niri_spacer4main0B3_
FN:230,_RNvCsjHH7bH7LryK_11niri_spacer12handle_stats
FN:166,_RNvCsjHH7bH7LryK_11niri_spacer13setup_logging
FN:192,_RNvCsjHH7bH7LryK_11niri_spacer19handle_session_info
FN:50,_RNvCsjHH7bH7LryK_11niri_spacer4main
FN:243,_RNCNCNvCsjysbsbKpEUi_11niri_spacer12handle_stats0s_0B5_
FN:230,_RNCNvCsjysbsbKpEUi_11niri_spacer12handle_stats0B3_
FN:192,_RNCNvCsjysbsbKpEUi_11niri_spacer19handle_session_info0B3_
FN:50,_RNCNvCsjysbsbKpEUi_11niri_spacer4main0B3_
FN:230,_RNvCsjysbsbKpEUi_11niri_spacer12handle_stats
FN:166,_RNvCsjysbsbKpEUi_11niri_spacer13setup_logging
FN:192,_RNvCsjysbsbKpEUi_11niri_spacer19handle_session_info
FN:50,_RNvCsjysbsbKpEUi_11niri_spacer4main
FNDA:0,_RNCNCNvCsjHH7bH7LryK_11niri_spacer12handle_stats0s_0B5_
FNDA:0,_RNCNvCsjHH7bH7LryK_11niri_spacer12handle_stats0B3_
FNDA:0,_RNCNvCsjHH7bH7LryK_11niri_spacer19handle_session_info0B3_
FNDA:0,_RNCNvCsjHH7bH7LryK_11niri_spacer4main0B3_
FNDA:0,_RNvCsjHH7bH7LryK_11niri_spacer12handle_stats
FNDA:0,_RNvCsjHH7bH7LryK_11niri_spacer13setup_logging
FNDA:0,_RNvCsjHH7bH7LryK_11niri_spacer19handle_session_info
FNDA:0,_RNvCsjHH7bH7LryK_11niri_spacer4main
FNDA:0,_RNCNCNvCsjysbsbKpEUi_11niri_spacer12handle_stats0s_0B5_
FNDA:0,_RNCNvCsjysbsbKpEUi_11niri_spacer12handle_stats0B3_
FNDA:0,_RNCNvCsjysbsbKpEUi_11niri_spacer19handle_session_info0B3_
FNDA:0,_RNCNvCsjysbsbKpEUi_11niri_spacer4main0B3_
FNDA:0,_RNvCsjysbsbKpEUi_11niri_spacer12handle_stats
FNDA:0,_RNvCsjysbsbKpEUi_11niri_spacer13setup_logging
FNDA:0,_RNvCsjysbsbKpEUi_11niri_spacer19handle_session_info
FNDA:0,_RNvCsjysbsbKpEUi_11niri_spacer4main
FNF:8
FNH:0
DA:50,0
DA:52,0
DA:55,0
DA:58,0
DA:61,0
DA:64,0
DA:65,0
DA:66,0
DA:67,0
DA:69,0
DA:70,0
DA:71,0
DA:73,0
DA:76,0
DA:77,0
DA:78,0
DA:80,0
DA:81,0
DA:82,0
DA:83,0
DA:86,0
DA:87,0
DA:90,0
DA:95,0
DA:96,0
DA:97,0
DA:99,0
DA:100,0
DA:101,0
DA:104,0
DA:106,0
DA:107,0
DA:108,0
DA:109,0
DA:110,0
DA:111,0
DA:112,0
DA:113,0
DA:114,0
DA:115,0
DA:116,0
DA:117,0
DA:118,0
DA:119,0
DA:120,0
DA:121,0
DA:122,0
DA:123,0
DA:124,0
DA:125,0
DA:126,0
DA:127,0
DA:128,0
DA:129,0
DA:130,0
DA:131,0
DA:132,0
DA:133,0
DA:134,0
DA:135,0
DA:136,0
DA:137,0
DA:138,0
DA:139,0
DA:140,0
DA:141,0
DA:142,0
DA:143,0
DA:144,0
DA:145,0
DA:146,0
DA:147,0
DA:148,0
DA:149,0
DA:150,0
DA:151,0
DA:152,0
DA:153,0
DA:154,0
DA:155,0
DA:156,0
DA:157,0
DA:158,0
DA:159,0
DA:160,0
DA:161,0
DA:162,0
DA:163,0
DA:166,0
DA:167,0
DA:168,0
DA:169,0
DA:170,0
DA:172,0
DA:175,0
DA:176,0
DA:177,0
DA:178,0
DA:179,0
DA:180,0
DA:182,0
DA:183,0
DA:184,0
DA:186,0
DA:188,0
DA:189,0
DA:192,0
DA:193,0
DA:195,0
DA:196,0
DA:197,0
DA:198,0
DA:199,0
DA:200,0
DA:202,0
DA:203,0
DA:204,0
DA:206,0
DA:207,0
DA:208,0
DA:210,0
DA:211,0
DA:212,0
DA:214,0
DA:215,0
DA:217,0
DA:218,0
DA:219,0
DA:220,0
DA:221,0
DA:222,0
DA:223,0
DA:224,0
DA:226,0
DA:227,0
DA:230,0
DA:231,0
DA:232,0
DA:233,0
DA:234,0
DA:235,0
DA:236,0
DA:237,0
DA:238,0
DA:239,0
DA:240,0
DA:241,0
DA:242,0
DA:243,0
DA:246,0
DA:247,0
DA:248,0
DA:249,0
DA:250,0
DA:251,0
DA:252,0
DA:254,0
DA:255,0
DA:256,0
DA:259,0
DA:260,0
DA:261,0
DA:262,0
DA:263,0
DA:265,0
DA:269,0
DA:270,0
DA:271,0
DA:272,0
DA:276,0
DA:277,0
BRF:0
BRH:0
LF:213
LH:0
end_of_record
SF:/home/wlritchi/niri-spacer/src/niri.rs
FN:125,_RNCNvMNtCs6obUjV1pBb_11niri_spacer4niriNtB4_10NiriClient7connect0CslsGjTMV4L15_17integration_tests
FN:181,_RNvMNtCs6obUjV1pBb_11niri_spacer4niriNtB2_10NiriClient11get_windows
FN:238,_RNvMNtCs6obUjV1pBb_11niri_spacer4niriNtB2_10NiriClient12focus_window
FN:190,_RNvMNtCs6obUjV1pBb_11niri_spacer4niriNtB2_10NiriClient13spawn_process
FN:172,_RNvMNtCs6obUjV1pBb_11niri_spacer4niriNtB2_10NiriClient14get_workspaces
FN:262,_RNvMNtCs6obUjV1pBb_11niri_spacer4niriNtB2_10NiriClient15focus_workspace
FN:250,_RNvMNtCs6obUjV1pBb_11niri_spacer4niriNtB2_10NiriClient19move_column_to_left
FN:219,_RNvMNtCs6obUjV1pBb_11niri_spacer4niriNtB2_10NiriClient24move_window_to_workspace
FN:202,_RNvMNtCs6obUjV1pBb_11niri_spacer4niriNtB2_10NiriClient24resize_window_to_minimum
FN:125,_RNvMNtCs6obUjV1pBb_11niri_spacer4niriNtB2_10NiriClient7connect
FN:140,_RNvMNtCs6obUjV1pBb_11niri_spacer4niriNtB2_10NiriClient7request
FN:275,_RNvNtCs6obUjV1pBb_11niri_spacer4niri21wait_for_window_spawn
FN:151,_RNCNCNvMNtCs6obUjV1pBb_11niri_spacer4niriNtB6_10NiriClient7request00B8_
FN:158,_RNCNCNvMNtCs6obUjV1pBb_11niri_spacer4niriNtB6_10NiriClient7request0s0_0B8_
FN:157,_RNCNCNvMNtCs6obUjV1pBb_11niri_spacer4niriNtB6_10NiriClient7request0s_0B8_
FN:293,_RNCNCNvNtCs6obUjV1pBb_11niri_spacer4niri21wait_for_window_spawn00B7_
FN:181,_RNCNvMNtCs6obUjV1pBb_11niri_spacer4niriNtB4_10NiriClient11get_windows0B6_
FN:238,_RNCNvMNtCs6obUjV1pBb_11niri_spacer4niriNtB4_10NiriClient12focus_window0B6_
FN:190,_RNCNvMNtCs6obUjV1pBb_11niri_spacer4niriNtB4_10NiriClient13spawn_process0B6_
FN:172,_RNCNvMNtCs6obUjV1pBb_11niri_spacer4niriNtB4_10NiriClient14get_workspaces0B6_
FN:262,_RNCNvMNtCs6obUjV1pBb_11niri_spacer4niriNtB4_10NiriClient15focus_workspace0B6_
FN:250,_RNCNvMNtCs6obUjV1pBb_11niri_spacer4niriNtB4_10NiriClient19move_column_to_left0B6_
FN:223,_RNCNvMNtCs6obUjV1pBb_11niri_spacer4niriNtB4_10NiriClient24move_window_to_workspace0B6_
FN:202,_RNCNvMNtCs6obUjV1pBb_11niri_spacer4niriNtB4_10NiriClient24resize_window_to_minimum0B6_
FN:125,_RNCNvMNtCs6obUjV1pBb_11niri_spacer4niriNtB4_10NiriClient7connect0B6_
FN:140,_RNCNvMNtCs6obUjV1pBb_11niri_spacer4niriNtB4_10NiriClient7request0B6_
FN:275,_RNCNvNtCs6obUjV1pBb_11niri_spacer4niri21wait_for_window_spawn0B5_
FN:151,_RNCNCNvMNtCs6obUjV1pBb_11niri_spacer4niriNtB6_10NiriClient7request00CsjHH7bH7LryK_11niri_spacer
FN:158,_RNCNCNvMNtCs6obUjV1pBb_11niri_spacer4niriNtB6_10NiriClient7request0s0_0CsjHH7bH7LryK_11niri_spacer
FN:157,_RNCNCNvMNtCs6obUjV1pBb_11niri_spacer4niriNtB6_10NiriClient7request0s_0CsjHH7bH7LryK_11niri_spacer
FN:293,_RNCNCNvNtCs6obUjV1pBb_11niri_spacer4niri21wait_for_window_spawn00CsjHH7bH7LryK_11niri_spacer
FN:181,_RNCNvMNtCs6obUjV1pBb_11niri_spacer4niriNtB4_10NiriClient11get_windows0CsjHH7bH7LryK_11niri_spacer
FN:238,_RNCNvMNtCs6obUjV1pBb_11niri_spacer4niriNtB4_10NiriClient12focus_window0CsjHH7bH7LryK_11niri_spacer
FN:190,_RNCNvMNtCs6obUjV1pBb_11niri_spacer4niriNtB4_10NiriClient13spawn_process0CsjHH7bH7LryK_11niri_spacer
FN:172,_RNCNvMNtCs6obUjV1pBb_11niri_spacer4niriNtB4_10NiriClient14get_workspaces0CsjHH7bH7LryK_11niri_spacer
FN:262,_RNCNvMNtCs6obUjV1pBb_11niri_spacer4niriNtB4_10NiriClient15focus_workspace0CsjHH7bH7LryK_11niri_spacer
FN:250,_RNCNvMNtCs6obUjV1pBb_11niri_spacer4niriNtB4_10NiriClient19move_column_to_left0CsjHH7bH7LryK_11niri_spacer
FN:223,_RNCNvMNtCs6obUjV1pBb_11niri_spacer4niriNtB4_10NiriClient24move_window_to_workspace0CsjHH7bH7LryK_11niri_spacer
FN:202,_RNCNvMNtCs6obUjV1pBb_11niri_spacer4niriNtB4_10NiriClient24resize_window_to_minimum0CsjHH7bH7LryK_11niri_spacer
FN:125,_RNCNvMNtCs6obUjV1pBb_11niri_spacer4niriNtB4_10NiriClient7connect0CsjHH7bH7LryK_11niri_spacer
FN:140,_RNCNvMNtCs6obUjV1pBb_11niri_spacer4niriNtB4_10NiriClient7request0CsjHH7bH7LryK_11niri_spacer
FN:275,_RNCNvNtCs6obUjV1pBb_11niri_spacer4niri21wait_for_window_spawn0CsjHH7bH7LryK_11niri_spacer
FN:151,_RNCNCNvMNtCsedyNFsHywaG_11niri_spacer4niriNtB6_10NiriClient7request00B8_
FN:158,_RNCNCNvMNtCsedyNFsHywaG_11niri_spacer4niriNtB6_10NiriClient7request0s0_0B8_
FN:157,_RNCNCNvMNtCsedyNFsHywaG_11niri_spacer4niriNtB6_10NiriClient7request0s_0B8_
FN:293,_RNCNCNvNtCsedyNFsHywaG_11niri_spacer4niri21wait_for_window_spawn00B7_
FN:181,_RNCNvMNtCsedyNFsHywaG_11niri_spacer4niriNtB4_10NiriClient11get_windows0B6_
FN:238,_RNCNvMNtCsedyNFsHywaG_11niri_spacer4niriNtB4_10NiriClient12focus_window0B6_
FN:190,_RNCNvMNtCsedyNFsHywaG_11niri_spacer4niriNtB4_10NiriClient13spawn_process0B6_
FN:172,_RNCNvMNtCsedyNFsHywaG_11niri_spacer4niriNtB4_10NiriClient14get_workspaces0B6_
FN:262,_RNCNvMNtCsedyNFsHywaG_11niri_spacer4niriNtB4_10NiriClient15focus_workspace0B6_
FN:250,_RNCNvMNtCsedyNFsHywaG_11niri_spacer4niriNtB4_10NiriClient19move_column_to_left0B6_
FN:223,_RNCNvMNtCsedyNFsHywaG_11niri_spacer4niriNtB4_10NiriClient24move_window_to_workspace0B6_
FN:202,_RNCNvMNtCsedyNFsHywaG_11niri_spacer4niriNtB4_10NiriClient24resize_window_to_minimum0B6_
FN:125,_RNCNvMNtCsedyNFsHywaG_11niri_spacer4niriNtB4_10NiriClient7connect0B6_
FN:140,_RNCNvMNtCsedyNFsHywaG_11niri_spacer4niriNtB4_10NiriClient7request0B6_
FN:275,_RNCNvNtCsedyNFsHywaG_11niri_spacer4niri21wait_for_window_spawn0B5_
FN:181,_RNvMNtCsedyNFsHywaG_11niri_spacer4niriNtB2_10NiriClient11get_windows
FN:238,_RNvMNtCsedyNFsHywaG_11niri_spacer4niriNtB2_10NiriClient12focus_window
FN:190,_RNvMNtCsedyNFsHywaG_11niri_spacer4niriNtB2_10NiriClient13spawn_process
FN:172,_RNvMNtCsedyNFsHywaG_11niri_spacer4niriNtB2_10NiriClient14get_workspaces
FN:262,_RNvMNtCsedyNFsHywaG_11niri_spacer4niriNtB2_10NiriClient15focus_workspace
FN:250,_RNvMNtCsedyNFsHywaG_11niri_spacer4niriNtB2_10NiriClient19move_column_to_left
FN:219,_RNvMNtCsedyNFsHywaG_11niri_spacer4niriNtB2_10NiriClient24move_window_to_workspace
FN:202,_RNvMNtCsedyNFsHywaG_11niri_spacer4niriNtB2_10NiriClient24resize_window_to_minimum
FN:125,_RNvMNtCsedyNFsHywaG_11niri_spacer4niriNtB2_10NiriClient7connect
FN:140,_RNvMNtCsedyNFsHywaG_11niri_spacer4niriNtB2_10NiriClient7request
FN:275,_RNvNtCsedyNFsHywaG_11niri_spacer4niri21wait_for_window_spawn
FNDA:0,_RNCNvMNtCs6obUjV1pBb_11niri_spacer4niriNtB4_10NiriClient7connect0CslsGjTMV4L15_17integration_tests
FNDA:0,_RNvMNtCs6obUjV1pBb_11niri_spacer4niriNtB2_10NiriClient11get_windows
FNDA:0,_RNvMNtCs6obUjV1pBb_11niri_spacer4niriNtB2_10NiriClient12focus_window
FNDA:0,_RNvMNtCs6obUjV1pBb_11niri_spacer4niriNtB2_10NiriClient13spawn_process
FNDA:0,_RNvMNtCs6obUjV1pBb_11niri_spacer4niriNtB2_10NiriClient14get_workspaces
FNDA:0,_RNvMNtCs6obUjV1pBb_11niri_spacer4niriNtB2_10NiriClient15focus_workspace
FNDA:0,_RNvMNtCs6obUjV1pBb_11niri_spacer4niriNtB2_10NiriClient19move_column_to_left
FNDA:0,_RNvMNtCs6obUjV1pBb_11niri_spacer4niriNtB2_10NiriClient24move_window_to_workspace
FNDA:0,_RNvMNtCs6obUjV1pBb_11niri_spacer4niriNtB2_10NiriClient24resize_window_to_minimum
FNDA:0,_RNvMNtCs6obUjV1pBb_11niri_spacer4niriNtB2_10NiriClient7connect
FNDA:0,_RNvMNtCs6obUjV1pBb_11niri_spacer4niriNtB2_10NiriClient7request
FNDA:0,_RNvNtCs6obUjV1pBb_11niri_spacer4niri21wait_for_window_spawn
FNDA:0,_RNCNCNvMNtCs6obUjV1pBb_11niri_spacer4niriNtB6_10NiriClient7request00B8_
FNDA:0,_RNCNCNvMNtCs6obUjV1pBb_11niri_spacer4niriNtB6_10NiriClient7request0s0_0B8_
FNDA:0,_RNCNCNvMNtCs6obUjV1pBb_11niri_spacer4niriNtB6_10NiriClient7request0s_0B8_
FNDA:0,_RNCNCNvNtCs6obUjV1pBb_11niri_spacer4niri21wait_for_window_spawn00B7_
FNDA:0,_RNCNvMNtCs6obUjV1pBb_11niri_spacer4niriNtB4_10NiriClient11get_windows0B6_
FNDA:0,_RNCNvMNtCs6obUjV1pBb_11niri_spacer4niriNtB4_10NiriClient12focus_window0B6_
FNDA:0,_RNCNvMNtCs6obUjV1pBb_11niri_spacer4niriNtB4_10NiriClient13spawn_process0B6_
FNDA:0,_RNCNvMNtCs6obUjV1pBb_11niri_spacer4niriNtB4_10NiriClient14get_workspaces0B6_
FNDA:0,_RNCNvMNtCs6obUjV1pBb_11niri_spacer4niriNtB4_10NiriClient15focus_workspace0B6_
FNDA:0,_RNCNvMNtCs6obUjV1pBb_11niri_spacer4niriNtB4_10NiriClient19move_column_to_left0B6_
FNDA:0,_RNCNvMNtCs6obUjV1pBb_11niri_spacer4niriNtB4_10NiriClient24move_window_to_workspace0B6_
FNDA:0,_RNCNvMNtCs6obUjV1pBb_11niri_spacer4niriNtB4_10NiriClient24resize_window_to_minimum0B6_
FNDA:0,_RNCNvMNtCs6obUjV1pBb_11niri_spacer4niriNtB4_10NiriClient7connect0B6_
FNDA:0,_RNCNvMNtCs6obUjV1pBb_11niri_spacer4niriNtB4_10NiriClient7request0B6_
FNDA:0,_RNCNvNtCs6obUjV1pBb_11niri_spacer4niri21wait_for_window_spawn0B5_
FNDA:0,_RNCNCNvMNtCs6obUjV1pBb_11niri_spacer4niriNtB6_10NiriClient7request00CsjHH7bH7LryK_11niri_spacer
FNDA:0,_RNCNCNvMNtCs6obUjV1pBb_11niri_spacer4niriNtB6_10NiriClient7request0s0_0CsjHH7bH7LryK_11niri_spacer
FNDA:0,_RNCNCNvMNtCs6obUjV1pBb_11niri_spacer4niriNtB6_10NiriClient7request0s_0CsjHH7bH7LryK_11niri_spacer
FNDA:0,_RNCNCNvNtCs6obUjV1pBb_11niri_spacer4niri21wait_for_window_spawn00CsjHH7bH7LryK_11niri_spacer
FNDA:0,_RNCNvMNtCs6obUjV1pBb_11niri_spacer4niriNtB4_10NiriClient11get_windows0CsjHH7bH7LryK_11niri_spacer
FNDA:0,_RNCNvMNtCs6obUjV1pBb_11niri_spacer4niriNtB4_10NiriClient12focus_window0CsjHH7bH7LryK_11niri_spacer
FNDA:0,_RNCNvMNtCs6obUjV1pBb_11niri_spacer4niriNtB4_10NiriClient13spawn_process0CsjHH7bH7LryK_11niri_spacer
FNDA:0,_RNCNvMNtCs6obUjV1pBb_11niri_spacer4niriNtB4_10NiriClient14get_workspaces0CsjHH7bH7LryK_11niri_spacer
FNDA:0,_RNCNvMNtCs6obUjV1pBb_11niri_spacer4niriNtB4_10NiriClient15focus_workspace0CsjHH7bH7LryK_11niri_spacer
FNDA:0,_RNCNvMNtCs6obUjV1pBb_11niri_spacer4niriNtB4_10NiriClient19move_column_to_left0CsjHH7bH7LryK_11niri_spacer
FNDA:0,_RNCNvMNtCs6obUjV1pBb_11niri_spacer4niriNtB4_10NiriClient24move_window_to_workspace0CsjHH7bH7LryK_11niri_spacer
FNDA:0,_RNCNvMNtCs6obUjV1pBb_11niri_spacer4niriNtB4_10NiriClient24resize_window_to_minimum0CsjHH7bH7LryK_11niri_spacer
FNDA:0,_RNCNvMNtCs6obUjV1pBb_11niri_spacer4niriNtB4_10NiriClient7connect0CsjHH7bH7LryK_11niri_spacer
FNDA:0,_RNCNvMNtCs6obUjV1pBb_11niri_spacer4niriNtB4_10NiriClient7request0CsjHH7bH7LryK_11niri_spacer
FNDA:0,_RNCNvNtCs6obUjV1pBb_11niri_spacer4niri21wait_for_window_spawn0CsjHH7bH7LryK_11niri_spacer
FNDA:0,_RNCNCNvMNtCsedyNFsHywaG_11niri_spacer4niriNtB6_10NiriClient7request00B8_
FNDA:0,_RNCNCNvMNtCsedyNFsHywaG_11niri_spacer4niriNtB6_10NiriClient7request0s0_0B8_
FNDA:0,_RNCNCNvMNtCsedyNFsHywaG_11niri_spacer4niriNtB6_10NiriClient7request0s_0B8_
FNDA:0,_RNCNCNvNtCsedyNFsHywaG_11niri_spacer4niri21wait_for_window_spawn00B7_
FNDA:0,_RNCNvMNtCsedyNFsHywaG_11niri_spacer4niriNtB4_10NiriClient11get_windows0B6_
FNDA:0,_RNCNvMNtCsedyNFsHywaG_11niri_spacer4niriNtB4_10NiriClient12focus_window0B6_
FNDA:0,_RNCNvMNtCsedyNFsHywaG_11niri_spacer4niriNtB4_10NiriClient13spawn_process0B6_
FNDA:0,_RNCNvMNtCsedyNFsHywaG_11niri_spacer4niriNtB4_10NiriClient14get_workspaces0B6_
FNDA:0,_RNCNvMNtCsedyNFsHywaG_11niri_spacer4niriNtB4_10NiriClient15focus_workspace0B6_
FNDA:0,_RNCNvMNtCsedyNFsHywaG_11niri_spacer4niriNtB4_10NiriClient19move_column_to_left0B6_
FNDA:0,_RNCNvMNtCsedyNFsHywaG_11niri_spacer4niriNtB4_10NiriClient24move_window_to_workspace0B6_
FNDA:0,_RNCNvMNtCsedyNFsHywaG_11niri_spacer4niriNtB4_10NiriClient24resize_window_to_minimum0B6_
FNDA:0,_RNCNvMNtCsedyNFsHywaG_11niri_spacer4niriNtB4_10NiriClient7connect0B6_
FNDA:0,_RNCNvMNtCsedyNFsHywaG_11niri_spacer4niriNtB4_10NiriClient7request0B6_
FNDA:0,_RNCNvNtCsedyNFsHywaG_11niri_spacer4niri21wait_for_window_spawn0B5_
FNDA:0,_RNvMNtCsedyNFsHywaG_11niri_spacer4niriNtB2_10NiriClient11get_windows
FNDA:0,_RNvMNtCsedyNFsHywaG_11niri_spacer4niriNtB2_10NiriClient12focus_window
FNDA:0,_RNvMNtCsedyNFsHywaG_11niri_spacer4niriNtB2_10NiriClient13spawn_process
FNDA:0,_RNvMNtCsedyNFsHywaG_11niri_spacer4niriNtB2_10NiriClient14get_workspaces
FNDA:0,_RNvMNtCsedyNFsHywaG_11niri_spacer4niriNtB2_10NiriClient15focus_workspace
FNDA:0,_RNvMNtCsedyNFsHywaG_11niri_spacer4niriNtB2_10NiriClient19move_column_to_left
FNDA:0,_RNvMNtCsedyNFsHywaG_11niri_spacer4niriNtB2_10NiriClient24move_window_to_workspace
FNDA:0,_RNvMNtCsedyNFsHywaG_11niri_spacer4niriNtB2_10NiriClient24resize_window_to_minimum
FNDA:0,_RNvMNtCsedyNFsHywaG_11niri_spacer4niriNtB2_10NiriClient7connect
FNDA:0,_RNvMNtCsedyNFsHywaG_11niri_spacer4niriNtB2_10NiriClient7request
FNDA:0,_RNvNtCsedyNFsHywaG_11niri_spacer4niri21wait_for_window_spawn
FNF:26
FNH:0
DA:125,0
DA:126,0
DA:127,0
DA:129,0
DA:130,0
DA:131,0
DA:133,0
DA:134,0
DA:136,0
DA:137,0
DA:140,0
DA:141,0
DA:142,0
DA:143,0
DA:146,0
DA:147,0
DA:148,0
DA:149,0
DA:150,0
DA:151,0
DA:154,0
DA:155,0
DA:156,0
DA:157,0
DA:158,0
DA:160,0
DA:161,0
DA:164,0
DA:165,0
DA:166,0
DA:168,0
DA:169,0
DA:172,0
DA:173,0
DA:174,0
DA:175,0
DA:176,0
DA:178,0
DA:181,0
DA:182,0
DA:183,0
DA:184,0
DA:185,0
DA:187,0
DA:190,0
DA:191,0
DA:192,0
DA:194,0
DA:195,0
DA:196,0
DA:197,0
DA:199,0
DA:202,0
DA:203,0
DA:204,0
DA:205,0
DA:206,0
DA:207,0
DA:209,0
DA:211,0
DA:212,0
DA:213,0
DA:214,0
DA:216,0
DA:219,0
DA:220,0
DA:221,0
DA:222,0
DA:223,0
DA:224,0
DA:225,0
DA:226,0
DA:227,0
DA:228,0
DA:230,0
DA:231,0
DA:232,0
DA:233,0
DA:235,0
DA:238,0
DA:239,0
DA:240,0
DA:242,0
DA:243,0
DA:244,0
DA:245,0
DA:247,0
DA:250,0
DA:251,0
DA:252,0
DA:254,0
DA:255,0
DA:256,0
DA:257,0
DA:259,0
DA:262,0
DA:263,0
DA:264,0
DA:266,0
DA:267,0
DA:268,0
DA:269,0
DA:271,0
DA:275,0
DA:276,0
DA:277,0
DA:279,0
DA:282,0
DA:283,0
DA:284,0
DA:286,0
DA:288,0
DA:289,0
DA:290,0
DA:291,0
DA:292,0
DA:293,0
DA:295,0
DA:296,0
DA:297,0
DA:299,0
DA:300,0
DA:304,0
BRF:0
BRH:0
LF:138
LH:0
end_of_record
SF:/home/wlritchi/niri-spacer/src/session.rs
FN:83,_RNvMNtCs6obUjV1pBb_11niri_spacer7sessionNtB2_16SessionValidator13validate_bash
FN:120,_RNvMNtCs6obUjV1pBb_11niri_spacer7sessionNtB2_16SessionValidator17check_permissions
FN:11,_RNvMNtCs6obUjV1pBb_11niri_spacer7sessionNtB2_16SessionValidator19detect_niri_session
FN:102,_RNvMNtCs6obUjV1pBb_11niri_spacer7sessionNtB2_16SessionValidator20validate_environment
FN:63,_RNvMNtCs6obUjV1pBb_11niri_spacer7sessionNtB2_16SessionValidator22validate_foot_terminal
FN:177,_RNvMs_NtCs6obUjV1pBb_11niri_spacer7sessionNtB4_15NiriSessionInfo19get_recommendations
FN:171,_RNvMs_NtCs6obUjV1pBb_11niri_spacer7sessionNtB4_15NiriSessionInfo21is_valid_niri_session
FN:160,_RNvMs_NtCs6obUjV1pBb_11niri_spacer7sessionNtB4_15NiriSessionInfo7summary
FN:83,_RNvMNtCsedyNFsHywaG_11niri_spacer7sessionNtB2_16SessionValidator13validate_bash
FN:120,_RNvMNtCsedyNFsHywaG_11niri_spacer7sessionNtB2_16SessionValidator17check_permissions
FN:11,_RNvMNtCsedyNFsHywaG_11niri_spacer7sessionNtB2_16SessionValidator19detect_niri_session
FN:102,_RNvMNtCsedyNFsHywaG_11niri_spacer7sessionNtB2_16SessionValidator20validate_environment
FN:63,_RNvMNtCsedyNFsHywaG_11niri_spacer7sessionNtB2_16SessionValidator22validate_foot_terminal
FN:177,_RNvMs_NtCsedyNFsHywaG_11niri_spacer7sessionNtB4_15NiriSessionInfo19get_recommendations
FN:171,_RNvMs_NtCsedyNFsHywaG_11niri_spacer7sessionNtB4_15NiriSessionInfo21is_valid_niri_session
FN:160,_RNvMs_NtCsedyNFsHywaG_11niri_spacer7sessionNtB4_15NiriSessionInfo7summary
FNDA:0,_RNvMNtCs6obUjV1pBb_11niri_spacer7sessionNtB2_16SessionValidator13validate_bash
FNDA:0,_RNvMNtCs6obUjV1pBb_11niri_spacer7sessionNtB2_16SessionValidator17check_permissions
FNDA:2,_RNvMNtCs6obUjV1pBb_11niri_spacer7sessionNtB2_16SessionValidator19detect_niri_session
FNDA:2,_RNvMNtCs6obUjV1pBb_11niri_spacer7sessionNtB2_16SessionValidator20validate_environment
FNDA:1,_RNvMNtCs6obUjV1pBb_11niri_spacer7sessionNtB2_16SessionValidator22validate_foot_terminal
FNDA:1,_RNvMs_NtCs6obUjV1pBb_11niri_spacer7sessionNtB4_15NiriSessionInfo19get_recommendations
FNDA:1,_RNvMs_NtCs6obUjV1pBb_11niri_spacer7sessionNtB4_15NiriSessionInfo21is_valid_niri_session
FNDA:0,_RNvMs_NtCs6obUjV1pBb_11niri_spacer7sessionNtB4_15NiriSessionInfo7summary
FNDA:0,_RNvMNtCsedyNFsHywaG_11niri_spacer7sessionNtB2_16SessionValidator13validate_bash
FNDA:0,_RNvMNtCsedyNFsHywaG_11niri_spacer7sessionNtB2_16SessionValidator17check_permissions
FNDA:0,_RNvMNtCsedyNFsHywaG_11niri_spacer7sessionNtB2_16SessionValidator19detect_niri_session
FNDA:0,_RNvMNtCsedyNFsHywaG_11niri_spacer7sessionNtB2_16SessionValidator20validate_environment
FNDA:0,_RNvMNtCsedyNFsHywaG_11niri_spacer7sessionNtB2_16SessionValidator22validate_foot_terminal
FNDA:0,_RNvMs_NtCsedyNFsHywaG_11niri_spacer7sessionNtB4_15NiriSessionInfo19get_recommendations
FNDA:0,_RNvMs_NtCsedyNFsHywaG_11niri_spacer7sessionNtB4_15NiriSessionInfo21is_valid_niri_session
FNDA:0,_RNvMs_NtCsedyNFsHywaG_11niri_spacer7sessionNtB4_15NiriSessionInfo7summary
FNF:8
FNH:5
DA:11,2
DA:12,2
DA:15,2
DA:17,1
DA:20,1
DA:21,0
DA:22,1
DA:25,1
DA:26,0
DA:27,0
DA:28,1
DA:31,1
DA:32,1
DA:35,1
DA:36,1
DA:37,1
DA:39,1
DA:40,1
DA:41,1
DA:44,1
DA:45,1
DA:46,0
DA:47,1
DA:49,1
DA:50,1
DA:51,1
DA:52,1
DA:53,1
DA:54,1
DA:55,1
DA:56,1
DA:58,1
DA:59,1
DA:60,2
DA:63,1
DA:64,1
DA:67,1
DA:68,0
DA:69,0
DA:70,0
DA:72,1
DA:73,1
DA:74,1
DA:75,1
DA:76,1
DA:77,1
DA:80,1
DA:83,0
DA:84,0
DA:86,0
DA:87,0
DA:88,0
DA:89,0
DA:91,0
DA:92,0
DA:93,0
DA:94,0
DA:95,0
DA:96,0
DA:99,0
DA:102,2
DA:103,2
DA:106,2
DA:109,1
DA:110,0
DA:113,0
DA:115,0
DA:116,0
DA:117,2
DA:120,0
DA:121,0
DA:123,0
DA:124,0
DA:126,0
DA:127,0
DA:130,0
DA:131,0
DA:133,0
DA:134,0
DA:135,0
DA:136,0
DA:137,0
DA:138,0
DA:140,0
DA:142,0
DA:144,0
DA:160,0
DA:161,0
DA:162,0
DA:164,0
DA:168,0
DA:171,1
DA:173,1
DA:174,1
DA:177,1
DA:178,1
DA:180,1
DA:181,0
DA:182,0
DA:183,0
DA:184,1
DA:186,1
DA:187,0
DA:188,0
DA:189,0
DA:190,0
DA:191,0
DA:192,1
DA:194,1
DA:195,0
DA:196,0
DA:197,0
DA:198,0
DA:199,1
DA:201,1
DA:202,1
DA:203,1
DA:205,1
DA:206,1
BRF:0
BRH:0
LF:119
LH:61
end_of_record
SF:/home/wlritchi/niri-spacer/src/window.rs
FN:20,_RNCNvMNtCs6obUjV1pBb_11niri_spacer6windowNtB4_13WindowManager3new0CslsGjTMV4L15_17integration_tests
FN:158,_RNvMNtCs6obUjV1pBb_11niri_spacer6windowNtB2_13WindowManager11get_windows
FN:163,_RNvMNtCs6obUjV1pBb_11niri_spacer6windowNtB2_13WindowManager13window_exists
FN:70,_RNvMNtCs6obUjV1pBb_11niri_spacer6windowNtB2_13WindowManager17move_to_workspace
FN:88,_RNvMNtCs6obUjV1pBb_11niri_spacer6windowNtB2_13WindowManager17position_leftmost
FN:57,_RNvMNtCs6obUjV1pBb_11niri_spacer6windowNtB2_13WindowManager17resize_to_minimum
FN:26,_RNvMNtCs6obUjV1pBb_11niri_spacer6windowNtB2_13WindowManager19spawn_spacer_window
FN:114,_RNvMNtCs6obUjV1pBb_11niri_spacer6windowNtB2_13WindowManager24create_configured_spacer
FN:20,_RNvMNtCs6obUjV1pBb_11niri_spacer6windowNtB2_13WindowManager3new
FN:217,_RNvMs_NtCs6obUjV1pBb_11niri_spacer6windowNtB4_13WindowManager16validate_spacers
FN:177,_RNvMs_NtCs6obUjV1pBb_11niri_spacer6windowNtB4_13WindowManager19create_spacer_batch
FN:165,_RNCNCNvMNtCs6obUjV1pBb_11niri_spacer6windowNtB6_13WindowManager13window_exists00B8_
FN:133,_RNCNCNvMNtCs6obUjV1pBb_11niri_spacer6windowNtB6_13WindowManager24create_configured_spacer00B8_
FN:141,_RNCNCNvMNtCs6obUjV1pBb_11niri_spacer6windowNtB6_13WindowManager24create_configured_spacer0s_0B8_
FN:223,_RNCNCNvMs_NtCs6obUjV1pBb_11niri_spacer6windowNtB8_13WindowManager16validate_spacers00Ba_
FN:158,_RNCNvMNtCs6obUjV1pBb_11niri_spacer6windowNtB4_13WindowManager11get_windows0B6_
FN:163,_RNCNvMNtCs6obUjV1pBb_11niri_spacer6windowNtB4_13WindowManager13window_exists0B6_
FN:70,_RNCNvMNtCs6obUjV1pBb_11niri_spacer6windowNtB4_13WindowManager17move_to_workspace0B6_
FN:88,_RNCNvMNtCs6obUjV1pBb_11niri_spacer6windowNtB4_13WindowManager17position_leftmost0B6_
FN:57,_RNCNvMNtCs6obUjV1pBb_11niri_spacer6windowNtB4_13WindowManager17resize_to_minimum0B6_
FN:26,_RNCNvMNtCs6obUjV1pBb_11niri_spacer6windowNtB4_13WindowManager19spawn_spacer_window0B6_
FN:118,_RNCNvMNtCs6obUjV1pBb_11niri_spacer6windowNtB4_13WindowManager24create_configured_spacer0B6_
FN:20,_RNCNvMNtCs6obUjV1pBb_11niri_spacer6windowNtB4_13WindowManager3new0B6_
FN:217,_RNCNvMs_NtCs6obUjV1pBb_11niri_spacer6windowNtB6_13WindowManager16validate_spacers0B8_
FN:181,_RNCNvMs_NtCs6obUjV1pBb_11niri_spacer6windowNtB6_13WindowManager19create_spacer_batch0B8_
FN:133,_RNCNCNvMNtCs6obUjV1pBb_11niri_spacer6windowNtB6_13WindowManager24create_configured_spacer00CsjHH7bH7LryK_11niri_spacer
FN:141,_RNCNCNvMNtCs6obUjV1pBb_11niri_spacer6windowNtB6_13WindowManager24create_configured_spacer0s_0CsjHH7bH7LryK_11niri_spacer
FN:223,_RNCNCNvMs_NtCs6obUjV1pBb_11niri_spacer6windowNtB8_13WindowManager16validate_spacers00CsjHH7bH7LryK_11niri_spacer
FN:158,_RNCNvMNtCs6obUjV1pBb_11niri_spacer6windowNtB4_13WindowManager11get_windows0CsjHH7bH7LryK_11niri_spacer
FN:70,_RNCNvMNtCs6obUjV1pBb_11niri_spacer6windowNtB4_13WindowManager17move_to_workspace0CsjHH7bH7LryK_11niri_spacer
FN:88,_RNCNvMNtCs6obUjV1pBb_11niri_spacer6windowNtB4_13WindowManager17position_leftmost0CsjHH7bH7LryK_11niri_spacer
FN:57,_RNCNvMNtCs6obUjV1pBb_11niri_spacer6windowNtB4_13WindowManager17resize_to_minimum0CsjHH7bH7LryK_11niri_spacer
FN:26,_RNCNvMNtCs6obUjV1pBb_11niri_spacer6windowNtB4_13WindowManager19spawn_spacer_window0CsjHH7bH7LryK_11niri_spacer
FN:118,_RNCNvMNtCs6obUjV1pBb_11niri_spacer6windowNtB4_13WindowManager24create_configured_spacer0CsjHH7bH7LryK_11niri_spacer
FN:20,_RNCNvMNtCs6obUjV1pBb_11niri_spacer6windowNtB4_13WindowManager3new0CsjHH7bH7LryK_11niri_spacer
FN:217,_RNCNvMs_NtCs6obUjV1pBb_11niri_spacer6windowNtB6_13WindowManager16validate_spacers0CsjHH7bH7LryK_11niri_spacer
FN:181,_RNCNvMs_NtCs6obUjV1pBb_11niri_spacer6windowNtB6_13WindowManager19create_spacer_batch0CsjHH7bH7LryK_11niri_spacer
FN:165,_RNCNCNvMNtCsedyNFsHywaG_11niri_spacer6windowNtB6_13WindowManager13window_exists00B8_
FN:133,_RNCNCNvMNtCsedyNFsHywaG_11niri_spacer6windowNtB6_13WindowManager24create_configured_spacer00B8_
FN:141,_RNCNCNvMNtCsedyNFsHywaG_11niri_spacer6windowNtB6_13WindowManager24create_configured_spacer0s_0B8_
FN:223,_RNCNCNvMs_NtCsedyNFsHywaG_11niri_spacer6windowNtB8_13WindowManager16validate_spacers00Ba_
FN:158,_RNCNvMNtCsedyNFsHywaG_11niri_spacer6windowNtB4_13WindowManager11get_windows0B6_
FN:163,_RNCNvMNtCsedyNFsHywaG_11niri_spacer6windowNtB4_13WindowManager13window_exists0B6_
FN:70,_RNCNvMNtCsedyNFsHywaG_11niri_spacer6windowNtB4_13WindowManager17move_to_workspace0B6_
FN:88,_RNCNvMNtCsedyNFsHywaG_11niri_spacer6windowNtB4_13WindowManager17position_leftmost0B6_
FN:57,_RNCNvMNtCsedyNFsHywaG_11niri_spacer6windowNtB4_13WindowManager17resize_to_minimum0B6_
FN:26,_RNCNvMNtCsedyNFsHywaG_11niri_spacer6windowNtB4_13WindowManager19spawn_spacer_window0B6_
FN:118,_RNCNvMNtCsedyNFsHywaG_11niri_spacer6windowNtB4_13WindowManager24create_configured_spacer0B6_
FN:20,_RNCNvMNtCsedyNFsHywaG_11niri_spacer6windowNtB4_13WindowManager3new0B6_
FN:217,_RNCNvMs_NtCsedyNFsHywaG_11niri_spacer6windowNtB6_13WindowManager16validate_spacers0B8_
FN:181,_RNCNvMs_NtCsedyNFsHywaG_11niri_spacer6windowNtB6_13WindowManager19create_spacer_batch0B8_
FN:158,_RNvMNtCsedyNFsHywaG_11niri_spacer6windowNtB2_13WindowManager11get_windows
FN:163,_RNvMNtCsedyNFsHywaG_11niri_spacer6windowNtB2_13WindowManager13window_exists
FN:70,_RNvMNtCsedyNFsHywaG_11niri_spacer6windowNtB2_13WindowManager17move_to_workspace
FN:88,_RNvMNtCsedyNFsHywaG_11niri_spacer6windowNtB2_13WindowManager17position_leftmost
FN:57,_RNvMNtCsedyNFsHywaG_11niri_spacer6windowNtB2_13WindowManager17resize_to_minimum
FN:26,_RNvMNtCsedyNFsHywaG_11niri_spacer6windowNtB2_13WindowManager19spawn_spacer_window
FN:114,_RNvMNtCsedyNFsHywaG_11niri_spacer6windowNtB2_13WindowManager24create_configured_spacer
FN:20,_RNvMNtCsedyNFsHywaG_11niri_spacer6windowNtB2_13WindowManager3new
FN:217,_RNvMs_NtCsedyNFsHywaG_11niri_spacer6windowNtB4_13WindowManager16validate_spacers
FN:177,_RNvMs_NtCsedyNFsHywaG_11niri_spacer6windowNtB4_13WindowManager19create_spacer_batch
FNDA:0,_RNCNvMNtCs6obUjV1pBb_11niri_spacer6windowNtB4_13WindowManager3new0CslsGjTMV4L15_17integration_tests
FNDA:0,_RNvMNtCs6obUjV1pBb_11niri_spacer6windowNtB2_13WindowManager11get_windows
FNDA:0,_RNvMNtCs6obUjV1pBb_11niri_spacer6windowNtB2_13WindowManager13window_exists
FNDA:0,_RNvMNtCs6obUjV1pBb_11niri_spacer6windowNtB2_13WindowManager17move_to_workspace
FNDA:0,_RNvMNtCs6obUjV1pBb_11niri_spacer6windowNtB2_13WindowManager17position_leftmost
FNDA:0,_RNvMNtCs6obUjV1pBb_11niri_spacer6windowNtB2_13WindowManager17resize_to_minimum
FNDA:0,_RNvMNtCs6obUjV1pBb_11niri_spacer6windowNtB2_13WindowManager19spawn_spacer_window
FNDA:0,_RNvMNtCs6obUjV1pBb_11niri_spacer6windowNtB2_13WindowManager24create_configured_spacer
FNDA:0,_RNvMNtCs6obUjV1pBb_11niri_spacer6windowNtB2_13WindowManager3new
FNDA:0,_RNvMs_NtCs6obUjV1pBb_11niri_spacer6windowNtB4_13WindowManager16validate_spacers
FNDA:0,_RNvMs_NtCs6obUjV1pBb_11niri_spacer6windowNtB4_13WindowManager19create_spacer_batch
FNDA:0,_RNCNCNvMNtCs6obUjV1pBb_11niri_spacer6windowNtB6_13WindowManager13window_exists00B8_
FNDA:0,_RNCNCNvMNtCs6obUjV1pBb_11niri_spacer6windowNtB6_13WindowManager24create_configured_spacer00B8_
FNDA:0,_RNCNCNvMNtCs6obUjV1pBb_11niri_spacer6windowNtB6_13WindowManager24create_configured_spacer0s_0B8_
FNDA:0,_RNCNCNvMs_NtCs6obUjV1pBb_11niri_spacer6windowNtB8_13WindowManager16validate_spacers00Ba_
FNDA:0,_RNCNvMNtCs6obUjV1pBb_11niri_spacer6windowNtB4_13WindowManager11get_windows0B6_
FNDA:0,_RNCNvMNtCs6obUjV1pBb_11niri_spacer6windowNtB4_13WindowManager13window_exists0B6_
FNDA:0,_RNCNvMNtCs6obUjV1pBb_11niri_spacer6windowNtB4_13WindowManager17move_to_workspace0B6_
FNDA:0,_RNCNvMNtCs6obUjV1pBb_11niri_spacer6windowNtB4_13WindowManager17position_leftmost0B6_
FNDA:0,_RNCNvMNtCs6obUjV1pBb_11niri_spacer6windowNtB4_13WindowManager17resize_to_minimum0B6_
FNDA:0,_RNCNvMNtCs6obUjV1pBb_11niri_spacer6windowNtB4_13WindowManager19spawn_spacer_window0B6_
FNDA:0,_RNCNvMNtCs6obUjV1pBb_11niri_spacer6windowNtB4_13WindowManager24create_configured_spacer0B6_
FNDA:0,_RNCNvMNtCs6obUjV1pBb_11niri_spacer6windowNtB4_13WindowManager3new0B6_
FNDA:0,_RNCNvMs_NtCs6obUjV1pBb_11niri_spacer6windowNtB6_13WindowManager16validate_spacers0B8_
FNDA:0,_RNCNvMs_NtCs6obUjV1pBb_11niri_spacer6windowNtB6_13WindowManager19create_spacer_batch0B8_
FNDA:0,_RNCNCNvMNtCs6obUjV1pBb_11niri_spacer6windowNtB6_13WindowManager24create_configured_spacer00CsjHH7bH7LryK_11niri_spacer
FNDA:0,_RNCNCNvMNtCs6obUjV1pBb_11niri_spacer6windowNtB6_13WindowManager24create_configured_spacer0s_0CsjHH7bH7LryK_11niri_spacer
FNDA:0,_RNCNCNvMs_NtCs6obUjV1pBb_11niri_spacer6windowNtB8_13WindowManager16validate_spacers00CsjHH7bH7LryK_11niri_spacer
FNDA:0,_RNCNvMNtCs6obUjV1pBb_11niri_spacer6windowNtB4_13WindowManager11get_windows0CsjHH7bH7LryK_11niri_spacer
FNDA:0,_RNCNvMNtCs6obUjV1pBb_11niri_spacer6windowNtB4_13WindowManager17move_to_workspace0CsjHH7bH7LryK_11niri_spacer
FNDA:0,_RNCNvMNtCs6obUjV1pBb_11niri_spacer6windowNtB4_13WindowManager17position_leftmost0CsjHH7bH7LryK_11niri_spacer
FNDA:0,_RNCNvMNtCs6obUjV1pBb_11niri_spacer6windowNtB4_13WindowManager17resize_to_minimum0CsjHH7bH7LryK_11niri_spacer
FNDA:0,_RNCNvMNtCs6obUjV1pBb_11niri_spacer6windowNtB4_13WindowManager19spawn_spacer_window0CsjHH7bH7LryK_11niri_spacer
FNDA:0,_RNCNvMNtCs6obUjV1pBb_11niri_spacer6windowNtB4_13WindowManager24create_configured_spacer0CsjHH7bH7LryK_11niri_spacer
FNDA:0,_RNCNvMNtCs6obUjV1pBb_11niri_spacer6windowNtB4_13WindowManager3new0CsjHH7bH7LryK_11niri_spacer
FNDA:0,_RNCNvMs_NtCs6obUjV1pBb_11niri_spacer6windowNtB6_13WindowManager16validate_spacers0CsjHH7bH7LryK_11niri_spacer
FNDA:0,_RNCNvMs_NtCs6obUjV1pBb_11niri_spacer6windowNtB6_13WindowManager19create_spacer_batch0CsjHH7bH7LryK_11niri_spacer
FNDA:0,_RNCNCNvMNtCsedyNFsHywaG_11niri_spacer6windowNtB6_13WindowManager13window_exists00B8_
FNDA:0,_RNCNCNvMNtCsedyNFsHywaG_11niri_spacer6windowNtB6_13WindowManager24create_configured_spacer00B8_
FNDA:0,_RNCNCNvMNtCsedyNFsHywaG_11niri_spacer6windowNtB6_13WindowManager24create_configured_spacer0s_0B8_
FNDA:0,_RNCNCNvMs_NtCsedyNFsHywaG_11niri_spacer6windowNtB8_13WindowManager16validate_spacers00Ba_
FNDA:0,_RNCNvMNtCsedyNFsHywaG_11niri_spacer6windowNtB4_13WindowManager11get_windows0B6_
FNDA:0,_RNCNvMNtCsedyNFsHywaG_11niri_spacer6windowNtB4_13WindowManager13window_exists0B6_
FNDA:0,_RNCNvMNtCsedyNFsHywaG_11niri_spacer6windowNtB4_13WindowManager17move_to_workspace0B6_
FNDA:0,_RNCNvMNtCsedyNFsHywaG_11niri_spacer6windowNtB4_13WindowManager17position_leftmost0B6_
FNDA:0,_RNCNvMNtCsedyNFsHywaG_11niri_spacer6windowNtB4_13WindowManager17resize_to_minimum0B6_
FNDA:0,_RNCNvMNtCsedyNFsHywaG_11niri_spacer6windowNtB4_13WindowManager19spawn_spacer_window0B6_
FNDA:0,_RNCNvMNtCsedyNFsHywaG_11niri_spacer6windowNtB4_13WindowManager24create_configured_spacer0B6_
FNDA:0,_RNCNvMNtCsedyNFsHywaG_11niri_spacer6windowNtB4_13WindowManager3new0B6_
FNDA:0,_RNCNvMs_NtCsedyNFsHywaG_11niri_spacer6windowNtB6_13WindowManager16validate_spacers0B8_
FNDA:0,_RNCNvMs_NtCsedyNFsHywaG_11niri_spacer6windowNtB6_13WindowManager19create_spacer_batch0B8_
FNDA:0,_RNvMNtCsedyNFsHywaG_11niri_spacer6windowNtB2_13WindowManager11get_windows
FNDA:0,_RNvMNtCsedyNFsHywaG_11niri_spacer6windowNtB2_13WindowManager13window_exists
FNDA:0,_RNvMNtCsedyNFsHywaG_11niri_spacer6windowNtB2_13WindowManager17move_to_workspace
FNDA:0,_RNvMNtCsedyNFsHywaG_11niri_spacer6windowNtB2_13WindowManager17position_leftmost
FNDA:0,_RNvMNtCsedyNFsHywaG_11niri_spacer6windowNtB2_13WindowManager17resize_to_minimum
FNDA:0,_RNvMNtCsedyNFsHywaG_11niri_spacer6windowNtB2_13WindowManager19spawn_spacer_window
FNDA:0,_RNvMNtCsedyNFsHywaG_11niri_spacer6windowNtB2_13WindowManager24create_configured_spacer
FNDA:0,_RNvMNtCsedyNFsHywaG_11niri_spacer6windowNtB2_13WindowManager3new
FNDA:0,_RNvMs_NtCsedyNFsHywaG_11niri_spacer6windowNtB4_13WindowManager16validate_spacers
FNDA:0,_RNvMs_NtCsedyNFsHywaG_11niri_spacer6windowNtB4_13WindowManager19create_spacer_batch
FNF:24
FNH:0
DA:20,0
DA:21,0
DA:22,0
DA:23,0
DA:26,0
DA:27,0
DA:29,0
DA:30,0
DA:31,0
DA:32,0
DA:33,0
DA:34,0
DA:35,0
DA:41,0
DA:44,0
DA:45,0
DA:47,0
DA:49,0
DA:50,0
DA:51,0
DA:52,0
DA:53,0
DA:54,0
DA:57,0
DA:58,0
DA:61,0
DA:63,0
DA:65,0
DA:66,0
DA:67,0
DA:70,0
DA:71,0
DA:73,0
DA:74,0
DA:75,0
DA:78,0
DA:80,0
DA:81,0
DA:84,0
DA:85,0
DA:88,0
DA:89,0
DA:90,0
DA:95,0
DA:96,0
DA:99,0
DA:100,0
DA:103,0
DA:104,0
DA:106,0
DA:107,0
DA:110,0
DA:111,0
DA:114,0
DA:115,0
DA:116,0
DA:117,0
DA:118,0
DA:120,0
DA:123,0
DA:126,0
DA:127,0
DA:128,0
DA:129,0
DA:130,0
DA:133,0
DA:134,0
DA:135,0
DA:136,0
DA:139,0
DA:140,0
DA:141,0
DA:142,0
DA:143,0
DA:146,0
DA:147,0
DA:149,0
DA:150,0
DA:154,0
DA:155,0
DA:158,0
DA:159,0
DA:160,0
DA:163,0
DA:164,0
DA:165,0
DA:166,0
DA:167,0
DA:168,0
DA:171,0
DA:177,0
DA:178,0
DA:179,0
DA:180,0
DA:181,0
DA:182,0
DA:183,0
DA:187,0
DA:189,0
DA:190,0
DA:191,0
DA:193,0
DA:194,0
DA:195,0
DA:197,0
DA:198,0
DA:201,0
DA:202,0
DA:203,0
DA:205,0
DA:206,0
DA:207,0
DA:212,0
DA:213,0
DA:214,0
DA:217,0
DA:218,0
DA:220,0
DA:222,0
DA:223,0
DA:224,0
DA:225,0
DA:226,0
DA:229,0
DA:231,0
DA:232,0
DA:235,0
DA:239,0
DA:240,0
DA:241,0
BRF:0
BRH:0
LF:146
LH:0
end_of_record
SF:/home/wlritchi/niri-spacer/src/workspace.rs
FN:13,_RNCNvMNtCs6obUjV1pBb_11niri_spacer9workspaceNtB4_16WorkspaceManager3new0CslsGjTMV4L15_17integration_tests
FN:19,_RNvMNtCs6obUjV1pBb_11niri_spacer9workspaceNtB2_16WorkspaceManager14get_workspaces
FN:24,_RNvMNtCs6obUjV1pBb_11niri_spacer9workspaceNtB2_16WorkspaceManager19get_workspace_by_id
FN:165,_RNvMNtCs6obUjV1pBb_11niri_spacer9workspaceNtB2_16WorkspaceManager19get_workspace_stats
FN:33,_RNvMNtCs6obUjV1pBb_11niri_spacer9workspaceNtB2_16WorkspaceManager21get_focused_workspace
FN:42,_RNvMNtCs6obUjV1pBb_11niri_spacer9workspaceNtB2_16WorkspaceManager23find_workspace_sequence
FN:85,_RNvMNtCs6obUjV1pBb_11niri_spacer9workspaceNtB2_16WorkspaceManager26suggest_starting_workspace
FN:136,_RNvMNtCs6obUjV1pBb_11niri_spacer9workspaceNtB2_16WorkspaceManager31validate_workspace_availability
FN:13,_RNvMNtCs6obUjV1pBb_11niri_spacer9workspaceNtB2_16WorkspaceManager3new
FN:214,_RNvMs_NtCs6obUjV1pBb_11niri_spacer9workspaceNtB4_14WorkspaceStats22has_good_tiling_layout
FN:234,_RNvMs_NtCs6obUjV1pBb_11niri_spacer9workspaceNtB4_14WorkspaceStats7summary
FN:28,_RNCNCNvMNtCs6obUjV1pBb_11niri_spacer9workspaceNtB6_16WorkspaceManager19get_workspace_by_id00B8_
FN:187,_RNCNCNvMNtCs6obUjV1pBb_11niri_spacer9workspaceNtB6_16WorkspaceManager19get_workspace_stats0s0_0B8_
FN:38,_RNCNCNvMNtCs6obUjV1pBb_11niri_spacer9workspaceNtB6_16WorkspaceManager21get_focused_workspace0s_0B8_
FN:106,_RNCNCNvMNtCs6obUjV1pBb_11niri_spacer9workspaceNtB6_16WorkspaceManager26suggest_starting_workspace00B8_
FN:19,_RNCNvMNtCs6obUjV1pBb_11niri_spacer9workspaceNtB4_16WorkspaceManager14get_workspaces0B6_
FN:24,_RNCNvMNtCs6obUjV1pBb_11niri_spacer9workspaceNtB4_16WorkspaceManager19get_workspace_by_id0B6_
FN:165,_RNCNvMNtCs6obUjV1pBb_11niri_spacer9workspaceNtB4_16WorkspaceManager19get_workspace_stats0B6_
FN:33,_RNCNvMNtCs6obUjV1pBb_11niri_spacer9workspaceNtB4_16WorkspaceManager21get_focused_workspace0B6_
FN:42,_RNCNvMNtCs6obUjV1pBb_11niri_spacer9workspaceNtB4_16WorkspaceManager23find_workspace_sequence0B6_
FN:85,_RNCNvMNtCs6obUjV1pBb_11niri_spacer9workspaceNtB4_16WorkspaceManager26suggest_starting_workspace0B6_
FN:140,_RNCNvMNtCs6obUjV1pBb_11niri_spacer9workspaceNtB4_16WorkspaceManager31validate_workspace_availability0B6_
FN:13,_RNCNvMNtCs6obUjV1pBb_11niri_spacer9workspaceNtB4_16WorkspaceManager3new0B6_
FN:242,_RNCNvMs_NtCs6obUjV1pBb_11niri_spacer9workspaceNtB6_14WorkspaceStats7summary0B8_
FN:187,_RNCNCNvMNtCs6obUjV1pBb_11niri_spacer9workspaceNtB6_16WorkspaceManager19get_workspace_stats0s0_0CsjHH7bH7LryK_11niri_spacer
FN:106,_RNCNCNvMNtCs6obUjV1pBb_11niri_spacer9workspaceNtB6_16WorkspaceManager26suggest_starting_workspace00CsjHH7bH7LryK_11niri_spacer
FN:19,_RNCNvMNtCs6obUjV1pBb_11niri_spacer9workspaceNtB4_16WorkspaceManager14get_workspaces0CsjHH7bH7LryK_11niri_spacer
FN:165,_RNCNvMNtCs6obUjV1pBb_11niri_spacer9workspaceNtB4_16WorkspaceManager19get_workspace_stats0CsjHH7bH7LryK_11niri_spacer
FN:42,_RNCNvMNtCs6obUjV1pBb_11niri_spacer9workspaceNtB4_16WorkspaceManager23find_workspace_sequence0CsjHH7bH7LryK_11niri_spacer
FN:85,_RNCNvMNtCs6obUjV1pBb_11niri_spacer9workspaceNtB4_16WorkspaceManager26suggest_starting_workspace0CsjHH7bH7LryK_11niri_spacer
FN:140,_RNCNvMNtCs6obUjV1pBb_11niri_spacer9workspaceNtB4_16WorkspaceManager31validate_workspace_availability0CsjHH7bH7LryK_11niri_spacer
FN:13,_RNCNvMNtCs6obUjV1pBb_11niri_spacer9workspaceNtB4_16WorkspaceManager3new0CsjHH7bH7LryK_11niri_spacer
FN:28,_RNCNCNvMNtCsedyNFsHywaG_11niri_spacer9workspaceNtB6_16WorkspaceManager19get_workspace_by_id00B8_
FN:187,_RNCNCNvMNtCsedyNFsHywaG_11niri_spacer9workspaceNtB6_16WorkspaceManager19get_workspace_stats0s0_0B8_
FN:38,_RNCNCNvMNtCsedyNFsHywaG_11niri_spacer9workspaceNtB6_16WorkspaceManager21get_focused_workspace0s_0B8_
FN:106,_RNCNCNvMNtCsedyNFsHywaG_11niri_spacer9workspaceNtB6_16WorkspaceManager26suggest_starting_workspace00B8_
FN:19,_RNCNvMNtCsedyNFsHywaG_11niri_spacer9workspaceNtB4_16WorkspaceManager14get_workspaces0B6_
FN:24,_RNCNvMNtCsedyNFsHywaG_11niri_spacer9workspaceNtB4_16WorkspaceManager19get_workspace_by_id0B6_
FN:165,_RNCNvMNtCsedyNFsHywaG_11niri_spacer9workspaceNtB4_16WorkspaceManager19get_workspace_stats0B6_
FN:33,_RNCNvMNtCsedyNFsHywaG_11niri_spacer9workspaceNtB4_16WorkspaceManager21get_focused_workspace0B6_
FN:42,_RNCNvMNtCsedyNFsHywaG_11niri_spacer9workspaceNtB4_16WorkspaceManager23find_workspace_sequence0B6_
FN:85,_RNCNvMNtCsedyNFsHywaG_11niri_spacer9workspaceNtB4_16WorkspaceManager26suggest_starting_workspace0B6_
FN:140,_RNCNvMNtCsedyNFsHywaG_11niri_spacer9workspaceNtB4_16WorkspaceManager31validate_workspace_availability0B6_
FN:13,_RNCNvMNtCsedyNFsHywaG_11niri_spacer9workspaceNtB4_16WorkspaceManager3new0B6_
FN:242,_RNCNvMs_NtCsedyNFsHywaG_11niri_spacer9workspaceNtB6_14WorkspaceStats7summary0B8_
FN:19,_RNvMNtCsedyNFsHywaG_11niri_spacer9workspaceNtB2_16WorkspaceManager14get_workspaces
FN:24,_RNvMNtCsedyNFsHywaG_11niri_spacer9workspaceNtB2_16WorkspaceManager19get_workspace_by_id
FN:165,_RNvMNtCsedyNFsHywaG_11niri_spacer9workspaceNtB2_16WorkspaceManager19get_workspace_stats
FN:33,_RNvMNtCsedyNFsHywaG_11niri_spacer9workspaceNtB2_16WorkspaceManager21get_focused_workspace
FN:42,_RNvMNtCsedyNFsHywaG_11niri_spacer9workspaceNtB2_16WorkspaceManager23find_workspace_sequence
FN:85,_RNvMNtCsedyNFsHywaG_11niri_spacer9workspaceNtB2_16WorkspaceManager26suggest_starting_workspace
FN:136,_RNvMNtCsedyNFsHywaG_11niri_spacer9workspaceNtB2_16WorkspaceManager31validate_workspace_availability
FN:13,_RNvMNtCsedyNFsHywaG_11niri_spacer9workspaceNtB2_16WorkspaceManager3new
FN:214,_RNvMs_NtCsedyNFsHywaG_11niri_spacer9workspaceNtB4_14WorkspaceStats22has_good_tiling_layout
FN:234,_RNvMs_NtCsedyNFsHywaG_11niri_spacer9workspaceNtB4_14WorkspaceStats7summary
FNDA:0,_RNCNvMNtCs6obUjV1pBb_11niri_spacer9workspaceNtB4_16WorkspaceManager3new0CslsGjTMV4L15_17integration_tests
FNDA:0,_RNvMNtCs6obUjV1pBb_11niri_spacer9workspaceNtB2_16WorkspaceManager14get_workspaces
FNDA:0,_RNvMNtCs6obUjV1pBb_11niri_spacer9workspaceNtB2_16WorkspaceManager19get_workspace_by_id
FNDA:0,_RNvMNtCs6obUjV1pBb_11niri_spacer9workspaceNtB2_16WorkspaceManager19get_workspace_stats
FNDA:0,_RNvMNtCs6obUjV1pBb_11niri_spacer9workspaceNtB2_16WorkspaceManager21get_focused_workspace
FNDA:0,_RNvMNtCs6obUjV1pBb_11niri_spacer9workspaceNtB2_16WorkspaceManager23find_workspace_sequence
FNDA:0,_RNvMNtCs6obUjV1pBb_11niri_spacer9workspaceNtB2_16WorkspaceManager26suggest_starting_workspace
FNDA:0,_RNvMNtCs6obUjV1pBb_11niri_spacer9workspaceNtB2_16WorkspaceManager31validate_workspace_availability
FNDA:0,_RNvMNtCs6obUjV1pBb_11niri_spacer9workspaceNtB2_16WorkspaceManager3new
FNDA:1,_RNvMs_NtCs6obUjV1pBb_11niri_spacer9workspaceNtB4_14WorkspaceStats22has_good_tiling_layout
FNDA:1,_RNvMs_NtCs6obUjV1pBb_11niri_spacer9workspaceNtB4_14WorkspaceStats7summary
FNDA:0,_RNCNCNvMNtCs6obUjV1pBb_11niri_spacer9workspaceNtB6_16WorkspaceManager19get_workspace_by_id00B8_
FNDA:0,_RNCNCNvMNtCs6obUjV1pBb_11niri_spacer9workspaceNtB6_16WorkspaceManager19get_workspace_stats0s0_0B8_
FNDA:0,_RNCNCNvMNtCs6obUjV1pBb_11niri_spacer9workspaceNtB6_16WorkspaceManager21get_focused_workspace0s_0B8_
FNDA:0,_RNCNCNvMNtCs6obUjV1pBb_11niri_spacer9workspaceNtB6_16WorkspaceManager26suggest_starting_workspace00B8_
FNDA:0,_RNCNvMNtCs6obUjV1pBb_11niri_spacer9workspaceNtB4_16WorkspaceManager14get_workspaces0B6_
FNDA:0,_RNCNvMNtCs6obUjV1pBb_11niri_spacer9workspaceNtB4_16WorkspaceManager19get_workspace_by_id0B6_
FNDA:0,_RNCNvMNtCs6obUjV1pBb_11niri_spacer9workspaceNtB4_16WorkspaceManager19get_workspace_stats0B6_
FNDA:0,_RNCNvMNtCs6obUjV1pBb_11niri_spacer9workspaceNtB4_16WorkspaceManager21get_focused_workspace0B6_
FNDA:0,_RNCNvMNtCs6obUjV1pBb_11niri_spacer9workspaceNtB4_16WorkspaceManager23find_workspace_sequence0B6_
FNDA:0,_RNCNvMNtCs6obUjV1pBb_11niri_spacer9workspaceNtB4_16WorkspaceManager26suggest_starting_workspace0B6_
FNDA:0,_RNCNvMNtCs6obUjV1pBb_11niri_spacer9workspaceNtB4_16WorkspaceManager31validate_workspace_availability0B6_
FNDA:0,_RNCNvMNtCs6obUjV1pBb_11niri_spacer9workspaceNtB4_16WorkspaceManager3new0B6_
FNDA:1,_RNCNvMs_NtCs6obUjV1pBb_11niri_spacer9workspaceNtB6_14WorkspaceStats7summary0B8_
FNDA:0,_RNCNCNvMNtCs6obUjV1pBb_11niri_spacer9workspaceNtB6_16WorkspaceManager19get_workspace_stats0s0_0CsjHH7bH7LryK_11niri_spacer
FNDA:0,_RNCNCNvMNtCs6obUjV1pBb_11niri_spacer9workspaceNtB6_16WorkspaceManager26suggest_starting_workspace00CsjHH7bH7LryK_11niri_spacer
FNDA:0,_RNCNvMNtCs6obUjV1pBb_11niri_spacer9workspaceNtB4_16WorkspaceManager14get_workspaces0CsjHH7bH7LryK_11niri_spacer
FNDA:0,_RNCNvMNtCs6obUjV1pBb_11niri_spacer9workspaceNtB4_16WorkspaceManager19get_workspace_stats0CsjHH7bH7LryK_11niri_spacer
FNDA:0,_RNCNvMNtCs6obUjV1pBb_11niri_spacer9workspaceNtB4_16WorkspaceManager23find_workspace_sequence0CsjHH7bH7LryK_11niri_spacer
FNDA:0,_RNCNvMNtCs6obUjV1pBb_11niri_spacer9workspaceNtB4_16WorkspaceManager26suggest_starting_workspace0CsjHH7bH7LryK_11niri_spacer
FNDA:0,_RNCNvMNtCs6obUjV1pBb_11niri_spacer9workspaceNtB4_16WorkspaceManager31validate_workspace_availability0CsjHH7bH7LryK_11niri_spacer
FNDA:0,_RNCNvMNtCs6obUjV1pBb_11niri_spacer9workspaceNtB4_16WorkspaceManager3new0CsjHH7bH7LryK_11niri_spacer
FNDA:0,_RNCNCNvMNtCsedyNFsHywaG_11niri_spacer9workspaceNtB6_16WorkspaceManager19get_workspace_by_id00B8_
FNDA:0,_RNCNCNvMNtCsedyNFsHywaG_11niri_spacer9workspaceNtB6_16WorkspaceManager19get_workspace_stats0s0_0B8_
FNDA:0,_RNCNCNvMNtCsedyNFsHywaG_11niri_spacer9workspaceNtB6_16WorkspaceManager21get_focused_workspace0s_0B8_
FNDA:0,_RNCNCNvMNtCsedyNFsHywaG_11niri_spacer9workspaceNtB6_16WorkspaceManager26suggest_starting_workspace00B8_
FNDA:0,_RNCNvMNtCsedyNFsHywaG_11niri_spacer9workspaceNtB4_16WorkspaceManager14get_workspaces0B6_
FNDA:0,_RNCNvMNtCsedyNFsHywaG_11niri_spacer9workspaceNtB4_16WorkspaceManager19get_workspace_by_id0B6_
FNDA:0,_RNCNvMNtCsedyNFsHywaG_11niri_spacer9workspaceNtB4_16WorkspaceManager19get_workspace_stats0B6_
FNDA:0,_RNCNvMNtCsedyNFsHywaG_11niri_spacer9workspaceNtB4_16WorkspaceManager21get_focused_workspace0B6_
FNDA:0,_RNCNvMNtCsedyNFsHywaG_11niri_spacer9workspaceNtB4_16WorkspaceManager23find_workspace_sequence0B6_
FNDA:0,_RNCNvMNtCsedyNFsHywaG_11niri_spacer9workspaceNtB4_16WorkspaceManager26suggest_starting_workspace0B6_
FNDA:0,_RNCNvMNtCsedyNFsHywaG_11niri_spacer9workspaceNtB4_16WorkspaceManager31validate_workspace_availability0B6_
FNDA:0,_RNCNvMNtCsedyNFsHywaG_11niri_spacer9workspaceNtB4_16WorkspaceManager3new0B6_
FNDA:0,_RNCNvMs_NtCsedyNFsHywaG_11niri_spacer9workspaceNtB6_14WorkspaceStats7summary0B8_
FNDA:0,_RNvMNtCsedyNFsHywaG_11niri_spacer9workspaceNtB2_16WorkspaceManager14get_workspaces
FNDA:0,_RNvMNtCsedyNFsHywaG_11niri_spacer9workspaceNtB2_16WorkspaceManager19get_workspace_by_id
FNDA:0,_RNvMNtCsedyNFsHywaG_11niri_spacer9workspaceNtB2_16WorkspaceManager19get_workspace_stats
FNDA:0,_RNvMNtCsedyNFsHywaG_11niri_spacer9workspaceNtB2_16WorkspaceManager21get_focused_workspace
FNDA:0,_RNvMNtCsedyNFsHywaG_11niri_spacer9workspaceNtB2_16WorkspaceManager23find_workspace_sequence
FNDA:0,_RNvMNtCsedyNFsHywaG_11niri_spacer9workspaceNtB2_16WorkspaceManager26suggest_starting_workspace
FNDA:0,_RNvMNtCsedyNFsHywaG_11niri_spacer9workspaceNtB2_16WorkspaceManager31validate_workspace_availability
FNDA:0,_RNvMNtCsedyNFsHywaG_11niri_spacer9workspaceNtB2_16WorkspaceManager3new
FNDA:0,_RNvMs_NtCsedyNFsHywaG_11niri_spacer9workspaceNtB4_14WorkspaceStats22has_good_tiling_layout
FNDA:0,_RNvMs_NtCsedyNFsHywaG_11niri_spacer9workspaceNtB4_14WorkspaceStats7summary
FNF:23
FNH:3
DA:13,0
DA:14,0
DA:15,0
DA:16,0
DA:19,0
DA:20,0
DA:21,0
DA:24,0
DA:25,0
DA:26,0
DA:27,0
DA:28,0
DA:29,0
DA:30,0
DA:33,0
DA:34,0
DA:35,0
DA:36,0
DA:37,0
DA:38,0
DA:39,0
DA:42,0
DA:43,0
DA:44,0
DA:45,0
DA:47,0
DA:48,0
DA:53,0
DA:56,0
DA:57,0
DA:58,0
DA:59,0
DA:60,0
DA:61,0
DA:64,0
DA:65,0
DA:66,0
DA:69,0
DA:70,0
DA:72,0
DA:75,0
DA:76,0
DA:77,0
DA:78,0
DA:79,0
DA:80,0
DA:82,0
DA:85,0
DA:86,0
DA:89,0
DA:90,0
DA:92,0
DA:93,0
DA:94,0
DA:95,0
DA:96,0
DA:98,0
DA:99,0
DA:104,0
DA:105,0
DA:106,0
DA:107,0
DA:108,0
DA:110,0
DA:112,0
DA:115,0
DA:116,0
DA:117,0
DA:118,0
DA:119,0
DA:120,0
DA:121,0
DA:125,0
DA:126,0
DA:127,0
DA:128,0
DA:129,0
DA:132,0
DA:133,0
DA:136,0
DA:137,0
DA:138,0
DA:139,0
DA:140,0
DA:141,0
DA:142,0
DA:143,0
DA:145,0
DA:146,0
DA:147,0
DA:148,0
DA:149,0
DA:154,0
DA:157,0
DA:158,0
DA:161,0
DA:162,0
DA:165,0
DA:166,0
DA:167,0
DA:169,0
DA:170,0
DA:172,0
DA:173,0
DA:174,0
DA:175,0
DA:178,0
DA:179,0
DA:180,0
DA:183,0
DA:184,0
DA:185,0
DA:186,0
DA:187,0
DA:188,0
DA:190,0
DA:191,0
DA:192,0
DA:193,0
DA:194,0
DA:195,0
DA:196,0
DA:197,0
DA:198,0
DA:214,1
DA:220,1
DA:221,1
DA:222,1
DA:224,0
DA:229,1
DA:230,1
DA:231,1
DA:234,1
DA:235,1
DA:236,1
DA:241,1
DA:242,1
DA:244,1
BRF:0
BRH:0
LF:151
LH:14
end_of_record
